target datalayout = "e-m:e-p270:32:32-p271:32:32-p272:64:64-i64:64-i128:128-f80:128-n8:16:32:64-S128"
target triple = "x86_64-pc-linux-gnu"

; Function Attrs: inlinehint nounwind uwtable
define internal i32 @Clip255(i32 noundef %0) #2 {
  %2 = alloca i32, align 4
  %3 = alloca i32, align 4
  store i32 %0, ptr %3, align 4, !tbaa !8
  %4 = load i32, ptr %3, align 4, !tbaa !8
  %5 = icmp ult i32 %4, 256
  br i1 %5, label %6, label %8

6:                                                ; preds = %1
  %7 = load i32, ptr %3, align 4, !tbaa !8
  store i32 %7, ptr %2, align 4
  br label %12

8:                                                ; preds = %1
  %9 = load i32, ptr %3, align 4, !tbaa !8
  %10 = xor i32 %9, -1
  %11 = lshr i32 %10, 24
  store i32 %11, ptr %2, align 4
  br label %12

12:                                               ; preds = %8, %6
  %13 = load i32, ptr %2, align 4
  ret i32 %13
}

; Function Attrs: inlinehint nounwind uwtable
define internal i32 @AddSubtractComponentHalf(i32 noundef %0, i32 noundef %1) #2 {
  %3 = alloca i32, align 4
  %4 = alloca i32, align 4
  store i32 %0, ptr %3, align 4, !tbaa !8
  store i32 %1, ptr %4, align 4, !tbaa !8
  %5 = load i32, ptr %3, align 4, !tbaa !8
  %6 = load i32, ptr %3, align 4, !tbaa !8
  %7 = load i32, ptr %4, align 4, !tbaa !8
  %8 = sub nsw i32 %6, %7
  %9 = sdiv i32 %8, 2
  %10 = add nsw i32 %5, %9
  %11 = call i32 @Clip255(i32 noundef %10)
  ret i32 %11
}

; Function Attrs: inlinehint nounwind uwtable
define internal i32 @Average2(i32 noundef %0, i32 noundef %1) #2 {
  %3 = alloca i32, align 4
  %4 = alloca i32, align 4
  store i32 %0, ptr %3, align 4, !tbaa !8
  store i32 %1, ptr %4, align 4, !tbaa !8
  %5 = load i32, ptr %3, align 4, !tbaa !8
  %6 = load i32, ptr %4, align 4, !tbaa !8
  %7 = xor i32 %5, %6
  %8 = and i32 %7, -16843010
  %9 = lshr i32 %8, 1
  %10 = load i32, ptr %3, align 4, !tbaa !8
  %11 = load i32, ptr %4, align 4, !tbaa !8
  %12 = and i32 %10, %11
  %13 = add i32 %9, %12
  ret i32 %13
}

; Function Attrs: inlinehint nounwind uwtable
define internal i32 @ClampedAddSubtractHalf(i32 noundef %0, i32 noundef %1, i32 noundef %2) #2 {
  %4 = alloca i32, align 4
  %5 = alloca i32, align 4
  %6 = alloca i32, align 4
  %7 = alloca i32, align 4
  %8 = alloca i32, align 4
  %9 = alloca i32, align 4
  %10 = alloca i32, align 4
  %11 = alloca i32, align 4
  store i32 %0, ptr %4, align 4, !tbaa !8
  store i32 %1, ptr %5, align 4, !tbaa !8
  store i32 %2, ptr %6, align 4, !tbaa !8
  call void @llvm.lifetime.start.p0(i64 4, ptr %7) #8
  %12 = load i32, ptr %4, align 4, !tbaa !8
  %13 = load i32, ptr %5, align 4, !tbaa !8
  %14 = call i32 @Average2(i32 noundef %12, i32 noundef %13)
  store i32 %14, ptr %7, align 4, !tbaa !8
  call void @llvm.lifetime.start.p0(i64 4, ptr %8) #8
  %15 = load i32, ptr %7, align 4, !tbaa !8
  %16 = lshr i32 %15, 24
  %17 = load i32, ptr %6, align 4, !tbaa !8
  %18 = lshr i32 %17, 24
  %19 = call i32 @AddSubtractComponentHalf(i32 noundef %16, i32 noundef %18)
  store i32 %19, ptr %8, align 4, !tbaa !8
  call void @llvm.lifetime.start.p0(i64 4, ptr %9) #8
  %20 = load i32, ptr %7, align 4, !tbaa !8
  %21 = lshr i32 %20, 16
  %22 = and i32 %21, 255
  %23 = load i32, ptr %6, align 4, !tbaa !8
  %24 = lshr i32 %23, 16
  %25 = and i32 %24, 255
  %26 = call i32 @AddSubtractComponentHalf(i32 noundef %22, i32 noundef %25)
  store i32 %26, ptr %9, align 4, !tbaa !8
  call void @llvm.lifetime.start.p0(i64 4, ptr %10) #8
  %27 = load i32, ptr %7, align 4, !tbaa !8
  %28 = lshr i32 %27, 8
  %29 = and i32 %28, 255
  %30 = load i32, ptr %6, align 4, !tbaa !8
  %31 = lshr i32 %30, 8
  %32 = and i32 %31, 255
  %33 = call i32 @AddSubtractComponentHalf(i32 noundef %29, i32 noundef %32)
  store i32 %33, ptr %10, align 4, !tbaa !8
  call void @llvm.lifetime.start.p0(i64 4, ptr %11) #8
  %34 = load i32, ptr %7, align 4, !tbaa !8
  %35 = lshr i32 %34, 0
  %36 = and i32 %35, 255
  %37 = load i32, ptr %6, align 4, !tbaa !8
  %38 = lshr i32 %37, 0
  %39 = and i32 %38, 255
  %40 = call i32 @AddSubtractComponentHalf(i32 noundef %36, i32 noundef %39)
  store i32 %40, ptr %11, align 4, !tbaa !8
  %41 = load i32, ptr %8, align 4, !tbaa !8
  %42 = shl i32 %41, 24
  %43 = load i32, ptr %9, align 4, !tbaa !8
  %44 = shl i32 %43, 16
  %45 = or i32 %42, %44
  %46 = load i32, ptr %10, align 4, !tbaa !8
  %47 = shl i32 %46, 8
  %48 = or i32 %45, %47
  %49 = load i32, ptr %11, align 4, !tbaa !8
  %50 = or i32 %48, %49
  call void @llvm.lifetime.end.p0(i64 4, ptr %11) #8
  call void @llvm.lifetime.end.p0(i64 4, ptr %10) #8
  call void @llvm.lifetime.end.p0(i64 4, ptr %9) #8
  call void @llvm.lifetime.end.p0(i64 4, ptr %8) #8
  call void @llvm.lifetime.end.p0(i64 4, ptr %7) #8
  ret i32 %50
}

; Function Attrs: nounwind uwtable
define hidden i32 @VP8LPredictor13_C(ptr noundef %0, ptr noundef %1) #0 {
  %3 = alloca ptr, align 8
  %4 = alloca ptr, align 8
  %5 = alloca i32, align 4
  store ptr %0, ptr %3, align 8, !tbaa !3
  store ptr %1, ptr %4, align 8, !tbaa !3
  call void @llvm.lifetime.start.p0(i64 4, ptr %5) #8
  %6 = load ptr, ptr %3, align 8, !tbaa !3
  %7 = load i32, ptr %6, align 4, !tbaa !8
  %8 = load ptr, ptr %4, align 8, !tbaa !3
  %9 = getelementptr inbounds i32, ptr %8, i64 0
  %10 = load i32, ptr %9, align 4, !tbaa !8
  %11 = load ptr, ptr %4, align 8, !tbaa !3
  %12 = getelementptr inbounds i32, ptr %11, i64 -1
  %13 = load i32, ptr %12, align 4, !tbaa !8
  %14 = call i32 @ClampedAddSubtractHalf(i32 noundef %7, i32 noundef %10, i32 noundef %13)
  store i32 %14, ptr %5, align 4, !tbaa !8
  %15 = load i32, ptr %5, align 4, !tbaa !8
  call void @llvm.lifetime.end.p0(i64 4, ptr %5) #8
  ret i32 %15
}