; Function Attrs: mustprogress nofree norecurse nosync nounwind willreturn memory(argmem: read) uwtable
define hidden i32 @VP8LPredictor13_C(ptr noundef readonly captures(none) %0, ptr noundef readonly captures(none) %1) #0 {
  %3 = load i32, ptr %0, align 4, !tbaa !3
  %4 = load i32, ptr %1, align 4, !tbaa !3
  %5 = getelementptr inbounds i8, ptr %1, i64 -4
  %6 = load i32, ptr %5, align 4, !tbaa !3
  %7 = xor i32 %4, %3
  %8 = lshr i32 %7, 1
  %9 = and i32 %8, 2139062143
  %10 = and i32 %4, %3
  %11 = add i32 %9, %10
  %12 = lshr i32 %11, 24
  %13 = lshr i32 %6, 24
  %14 = sub nsw i32 %12, %13
  %.lhs.trunc.i.i = trunc nsw i32 %14 to i16
  %15 = sdiv i16 %.lhs.trunc.i.i, 2
  %.sext.i.i = sext i16 %15 to i32
  %16 = add nsw i32 %12, %.sext.i.i
  %17 = icmp ult i32 %16, 256
  %18 = xor i32 %16, -1
  %19 = lshr i32 %18, 24
  %.0.i.i.i = select i1 %17, i32 %16, i32 %19
  %20 = lshr i32 %11, 16
  %21 = and i32 %20, 255
  %22 = lshr i32 %6, 16
  %23 = and i32 %22, 255
  %24 = sub nsw i32 %21, %23
  %.lhs.trunc.i14.i = trunc nsw i32 %24 to i16
  %25 = sdiv i16 %.lhs.trunc.i14.i, 2
  %.sext.i15.i = sext i16 %25 to i32
  %26 = add nsw i32 %21, %.sext.i15.i
  %27 = icmp ult i32 %26, 256
  %28 = xor i32 %26, -1
  %29 = lshr i32 %28, 24
  %.0.i.i16.i = select i1 %27, i32 %26, i32 %29
  %30 = lshr i32 %11, 8
  %31 = and i32 %30, 255
  %32 = lshr i32 %6, 8
  %33 = and i32 %32, 255
  %34 = sub nsw i32 %31, %33
  %.lhs.trunc.i17.i = trunc nsw i32 %34 to i16
  %35 = sdiv i16 %.lhs.trunc.i17.i, 2
  %.sext.i18.i = sext i16 %35 to i32
  %36 = add nsw i32 %31, %.sext.i18.i
  %37 = icmp ult i32 %36, 256
  %38 = xor i32 %36, -1
  %39 = lshr i32 %38, 24
  %.0.i.i19.i = select i1 %37, i32 %36, i32 %39
  %40 = and i32 %11, 255
  %41 = and i32 %6, 255
  %42 = sub nsw i32 %40, %41
  %.lhs.trunc.i20.i = trunc nsw i32 %42 to i16
  %43 = sdiv i16 %.lhs.trunc.i20.i, 2
  %.sext.i21.i = sext i16 %43 to i32
  %44 = add nsw i32 %40, %.sext.i21.i
  %45 = icmp ult i32 %44, 256
  %46 = xor i32 %44, -1
  %47 = lshr i32 %46, 24
  %.0.i.i22.i = select i1 %45, i32 %44, i32 %47
  %48 = shl nuw i32 %.0.i.i.i, 24
  %49 = shl nuw nsw i32 %.0.i.i16.i, 16
  %50 = shl nuw nsw i32 %.0.i.i19.i, 8
  %51 = add nuw nsw i32 %48, %.0.i.i22.i
  %52 = add nuw nsw i32 %51, %49
  %53 = add nuw nsw i32 %52, %50
  ret i32 %53
}